Certificate:
    Data:
        Version: 3 (0x2)
        Serial Number: 2 (0x2)
        Signature Algorithm: sha1WithRSAEncryption
        Issuer: DC=org, DC=breakoutroom, O=Breakout Room 2 Inc, OU=Breakout Room 2 Signing CA, CN=Breakout Room 2 Signing CA
        Validity
            Not Before: May  5 10:10:35 2022 GMT
            Not After : May  4 10:10:35 2024 GMT
        Subject: DC=org, DC=breakoutroom, O=Breakout Room 2 Inc, CN=www.breakoutroom.org
        Subject Public Key Info:
            Public Key Algorithm: rsaEncryption
                RSA Public-Key: (2048 bit)
                Modulus:
                    00:ab:e7:5e:1a:76:a2:11:42:94:57:62:c0:b7:a0:
                    a7:08:8f:fe:7a:5d:e3:31:6f:ab:0d:23:30:29:a4:
                    3f:ba:f2:af:13:b6:64:b0:39:2a:98:d6:57:83:96:
                    30:4d:3f:aa:de:81:a4:6e:ad:5e:4b:96:02:10:5f:
                    6d:1d:85:35:cc:88:6b:97:9b:9b:0f:5f:a1:f9:c5:
                    a3:bc:74:a9:e9:a8:63:23:c6:d4:eb:c3:dc:d0:56:
                    42:d9:4b:6b:64:f2:f4:07:c1:98:78:11:5c:6c:fd:
                    d2:eb:a0:b9:02:45:0c:73:88:b2:cb:f7:f8:27:7a:
                    6a:f9:e6:3b:9a:83:2b:cb:bf:71:64:d6:be:f6:bc:
                    a8:a1:53:5e:66:32:10:89:17:68:a4:43:df:e0:b3:
                    5a:09:b6:35:c0:b5:ce:b7:39:df:7f:55:83:62:e0:
                    98:fb:81:e1:e0:08:a3:dd:d8:44:96:b2:56:4a:dc:
                    2a:35:d0:f0:95:48:54:75:9d:6d:b8:6f:ea:02:7e:
                    72:28:80:90:56:e8:e2:a2:99:e9:bb:09:f7:a7:8e:
                    e0:59:96:3d:76:cf:de:5d:73:74:a2:d9:79:52:eb:
                    39:e9:ce:34:c5:14:6b:b4:33:a3:4e:3d:b5:67:99:
                    e3:c6:74:13:e9:c1:dd:d4:0b:52:7a:70:ca:25:c7:
                    33:37
                Exponent: 65537 (0x10001)
        X509v3 extensions:
            X509v3 Key Usage: critical
                Digital Signature, Key Encipherment
            X509v3 Basic Constraints: 
                CA:FALSE
            X509v3 Extended Key Usage: 
                TLS Web Server Authentication, TLS Web Client Authentication
            X509v3 Subject Key Identifier: 
                A5:B9:D3:A0:34:C1:BB:75:CE:1B:52:B9:E3:FE:5B:95:C0:F6:EF:DE
            X509v3 Authority Key Identifier: 
                keyid:94:53:F4:78:45:70:D2:92:81:1D:97:2D:33:62:65:83:C2:34:63:48

            X509v3 Subject Alternative Name: 
                DNS:www.breakoutroom.org
    Signature Algorithm: sha1WithRSAEncryption
         ca:00:71:47:6e:0c:b7:8f:1b:50:34:e7:3d:d9:3b:6f:70:56:
         90:f2:03:0c:25:da:dc:34:3c:f6:9a:a0:7f:48:7f:75:6c:81:
         4a:c3:5e:0e:8e:04:02:ce:2a:de:b8:fb:b5:c6:be:0a:48:22:
         1f:28:36:90:b2:55:7f:fd:41:26:85:7b:b9:b9:97:ab:33:ce:
         4e:16:17:a0:6d:fa:7d:01:8b:1b:42:7d:c9:ca:8a:45:fe:a0:
         1b:90:9d:c2:86:5f:0d:70:5f:c0:f6:81:c1:0d:5a:3b:5f:10:
         53:94:1c:0a:dc:9d:1a:ac:95:20:0d:22:e8:71:56:64:fc:1a:
         61:ca:af:08:eb:f4:60:0c:ef:a0:bd:f4:85:df:43:e9:91:17:
         31:f9:35:23:bd:80:72:82:0b:1c:be:40:27:52:a6:11:fe:4b:
         8c:d5:c3:35:bb:23:7c:0a:9a:65:00:6a:10:08:8f:5b:b9:c4:
         a0:7c:82:41:03:35:26:d3:4c:4f:aa:ba:ae:e2:e0:6f:3c:e9:
         52:87:82:61:a6:0c:46:ff:65:4c:07:d3:02:02:e3:f0:94:f3:
         6a:e8:b0:df:27:93:24:03:36:3a:fd:9f:42:10:d7:2e:74:98:
         48:c8:f1:51:6a:31:00:bc:61:f2:bc:7d:60:f2:40:04:8a:7a:
         cd:0e:d3:30
-----BEGIN CERTIFICATE-----
MIIEJjCCAw6gAwIBAgIBAjANBgkqhkiG9w0BAQUFADCBmzETMBEGCgmSJomT8ixk
ARkWA29yZzEcMBoGCgmSJomT8ixkARkWDGJyZWFrb3V0cm9vbTEcMBoGA1UECgwT
QnJlYWtvdXQgUm9vbSAyIEluYzEjMCEGA1UECwwaQnJlYWtvdXQgUm9vbSAyIFNp
Z25pbmcgQ0ExIzAhBgNVBAMMGkJyZWFrb3V0IFJvb20gMiBTaWduaW5nIENBMB4X
DTIyMDUwNTEwMTAzNVoXDTI0MDUwNDEwMTAzNVowcDETMBEGCgmSJomT8ixkARkW
A29yZzEcMBoGCgmSJomT8ixkARkWDGJyZWFrb3V0cm9vbTEcMBoGA1UECgwTQnJl
YWtvdXQgUm9vbSAyIEluYzEdMBsGA1UEAwwUd3d3LmJyZWFrb3V0cm9vbS5vcmcw
ggEiMA0GCSqGSIb3DQEBAQUAA4IBDwAwggEKAoIBAQCr514adqIRQpRXYsC3oKcI
j/56XeMxb6sNIzAppD+68q8TtmSwOSqY1leDljBNP6regaRurV5LlgIQX20dhTXM
iGuXm5sPX6H5xaO8dKnpqGMjxtTrw9zQVkLZS2tk8vQHwZh4EVxs/dLroLkCRQxz
iLLL9/gnemr55juagyvLv3Fk1r72vKihU15mMhCJF2ikQ9/gs1oJtjXAtc63Od9/
VYNi4Jj7geHgCKPd2ESWslZK3Co10PCVSFR1nW24b+oCfnIogJBW6OKimem7Cfen
juBZlj12z95dc3Si2XlS6znpzjTFFGu0M6NOPbVnmePGdBPpwd3UC1J6cMolxzM3
AgMBAAGjgZ4wgZswDgYDVR0PAQH/BAQDAgWgMAkGA1UdEwQCMAAwHQYDVR0lBBYw
FAYIKwYBBQUHAwEGCCsGAQUFBwMCMB0GA1UdDgQWBBSludOgNMG7dc4bUrnj/luV
wPbv3jAfBgNVHSMEGDAWgBSUU/R4RXDSkoEdly0zYmWDwjRjSDAfBgNVHREEGDAW
ghR3d3cuYnJlYWtvdXRyb29tLm9yZzANBgkqhkiG9w0BAQUFAAOCAQEAygBxR24M
t48bUDTnPdk7b3BWkPIDDCXa3DQ89pqgf0h/dWyBSsNeDo4EAs4q3rj7tca+Ckgi
Hyg2kLJVf/1BJoV7ubmXqzPOThYXoG36fQGLG0J9ycqKRf6gG5CdwoZfDXBfwPaB
wQ1aO18QU5QcCtydGqyVIA0i6HFWZPwaYcqvCOv0YAzvoL30hd9D6ZEXMfk1I72A
coILHL5AJ1KmEf5LjNXDNbsjfAqaZQBqEAiPW7nEoHyCQQM1JtNMT6q6ruLgbzzp
UoeCYaYMRv9lTAfTAgLj8JTzauiw3yeTJAM2Ov2fQhDXLnSYSMjxUWoxALxh8rx9
YPJABIp6zQ7TMA==
-----END CERTIFICATE-----
