-----BEGIN ENCRYPTED PRIVATE KEY-----
MIIFHDBOBgkqhkiG9w0BBQ0wQTApBgkqhkiG9w0BBQwwHAQIUEBjGAP8bmwCAggA
MAwGCCqGSIb3DQIJBQAwFAYIKoZIhvcNAwcECKoNGxbH5YC1BIIEyKRHn38/XE03
zonrDF++U30C6qKhz3TBhBnJR2CrN6KOo4dSexJQugKFs7uS/YbkTvB4kX/fruXc
EVgu3bVuKwiLGiOlBzBuS5A57vnTLa03OI+Y4uk4zJxxCAF6D1+kV4lQPgiwB7mN
fT5FuHybTCszqb8/ohVnwNf/hgJ/Y23Tg1coxR6U4yMjT/MrXLTejJojZbAHxoxa
lr8WD5woX3CJUzcCRGBriswkecvaaro2XL8tLHnvd7WkEDQVMwgiFZlyZPXxphqE
XbuKwkBxYnOZ7rIRF93R2eU89D3sXTuj3D1devgM2voWyAqETJuItQT1HCUZj4BY
ranS6lpGCTlzmXrwRRP+tPISYrwir8VFSAwQ3VGAjjV1FNQoedjgK5gQ1mhXXHBZ
vvzRbiKyp0ayx6UqkV2ViWKiLmIpp0dYbGd7X7v1BQARO9afAgYDtHeUAM6Knv1n
n3kt3+McNNrV0ybQCA1J0eHqWzSz0tG2QgGvgk4u0tEvWJ50leV1gOIkImP63leJ
DB15VqcIGBBBbsJDwRePvm8LWScULKVG+IGcqds7GeXM6rTYvPac7Rxm8k9nCuHd
TU2zl4Qp2EO3WPAL5DTwpZ9FnAQOPeaoNkq5nakU3XyTEjZ31h3pBsNz8HXh0D2T
pwLvEe1vfPUIg6o2ZxEGz11t5HdbtBMrdwHe6I73gA7cqdD9pZGbe+YMQ+gkB8+J
q4c9wqdwuebTMheSUIWI81XHgCMFogcSl+PilsdR0l9bkdb08LrZh51pfEFKx8k4
lILNV3GRU/xlO9SdzOUjejAcVhqmdz1Tra7YbrfEcWAbHpe9NwxZz5qkn50tg9K5
Ss7X2pyWtd/mE7p9nILngO3pSeMBjM5eV7tQTbPFYx2uSDLEeMeKg3j5YC4k0p+i
BtfsrAIBqrNsbKKgh8zL+Bgvb8ChgZq8nGCppjsaiLT5p41aRk4dXh6aGxgmSmau
+weBKVpN/3pS1lA0+IEuLZceU/8Fzt35h5cPvxH89qzZWkbj9Rpb3neb57XBqUHa
KNKPIxO0i9S2MQcQDmE0DhVL8enr2KLfgqi7ItD7hNom8ReXBVofuupI53m5weAn
JPSabwBC487ZY3mmnQ4WXE4N+9YztTS4F1FwRbXKEkMpd3bHSUDffB8JRf6zpQ+O
Ho0b7X1lSN69HpTxElMnhQUs/5LMno/XJ7ptlOIo2RoWE/Q13IL46uB4+jeX2i8x
3TF5whLj+yLpqw/87dZPN3xuYgPJD7FGWtPlaGnpGry7/OSyKwVzvlRtDws1Yn4P
zILVcwtsoyiQgdrambpPLb/qKPP59yp3DpThAYP0nwKXgy4/wghU+vsOKriEGAi0
NRQCHvmCFl36itoeSVKHPiiQ1gDMvYNJGlSMORP0nf3+kOyMGHkFW9Bdd3P1MHwE
GO7vw5dbl8NA5A7qolNNuYlRqMnhXsK0zVIR8h97pK/X3NCgJGhZdq6wa/L95Dml
YeK/yrWC2lEZaK2qzi5G5YlkrR0c8z29U3g01Ni+3szcPjtS3luAX1z0UvSXhd3P
M4EqGOXgmbpd0gwEOCj25bXqHByidr8D18eilHclZ2W+AZZSds2AgbF+FQHuW/ew
ykO2q0s1qbyvcX/ivb4l8A==
-----END ENCRYPTED PRIVATE KEY-----
Certificate:
    Data:
        Version: 3 (0x2)
        Serial Number: 1 (0x1)
        Signature Algorithm: sha1WithRSAEncryption
        Issuer: DC=org, DC=breakoutroom, O=Breakout Room 2 Inc, OU=Breakout Room 2 Signing CA, CN=Breakout Room 2 Signing CA
        Validity
            Not Before: May  5 10:07:10 2022 GMT
            Not After : May  4 10:07:10 2024 GMT
        Subject: DC=org, DC=breakoutroom, O=Breakout Room 2 Inc, CN=Nguyen Duong
        Subject Public Key Info:
            Public Key Algorithm: rsaEncryption
                RSA Public-Key: (2048 bit)
                Modulus:
                    00:c8:51:70:da:58:ce:68:e1:59:5b:e4:84:af:06:
                    a9:8c:f7:2c:c5:0d:af:3f:98:50:23:59:38:6a:dc:
                    59:28:13:23:9e:61:0e:4c:dd:3d:5d:af:6a:9f:c4:
                    99:51:e9:af:6c:5f:e4:b9:27:d5:51:de:19:98:28:
                    1e:26:ba:16:40:0a:d2:80:4f:22:74:9e:a8:56:3b:
                    45:8a:52:d1:55:8a:14:42:ad:62:90:f2:f9:33:08:
                    8a:6a:03:10:3c:e0:2f:64:1d:26:71:ee:5a:a9:12:
                    ba:20:ab:44:59:5a:1d:e2:55:36:a7:dd:c4:e9:55:
                    ad:07:6c:7a:0c:71:8e:f3:e2:39:5b:a2:a5:60:98:
                    14:19:f2:40:4b:c0:e8:18:ce:e7:bf:52:a5:01:16:
                    4e:e1:4f:a4:55:7a:db:5b:44:44:39:6d:4e:dd:2c:
                    80:b7:f1:29:d2:aa:06:95:6e:f6:93:9c:da:86:f5:
                    9f:3f:6d:46:f4:12:fe:53:4d:bc:07:a9:fa:51:8d:
                    cd:6a:6f:a0:d0:08:bb:fd:e5:06:3e:91:be:8d:fb:
                    3b:3d:a6:d4:71:45:43:52:07:e0:28:2a:a1:83:11:
                    02:48:52:4a:b0:e5:c7:ac:c8:07:dd:0f:ae:e4:c9:
                    ee:04:cf:a4:2d:1b:c4:a0:fe:0a:69:65:4e:72:65:
                    4c:5f
                Exponent: 65537 (0x10001)
        X509v3 extensions:
            X509v3 Key Usage: critical
                Digital Signature, Key Encipherment
            X509v3 Basic Constraints: 
                CA:FALSE
            X509v3 Extended Key Usage: 
                E-mail Protection, TLS Web Client Authentication
            X509v3 Subject Key Identifier: 
                A0:3C:38:B0:18:FB:79:DF:D5:56:A4:99:CE:40:EC:31:34:92:60:BE
            X509v3 Authority Key Identifier: 
                keyid:94:53:F4:78:45:70:D2:92:81:1D:97:2D:33:62:65:83:C2:34:63:48

            X509v3 Subject Alternative Name: 
                email:nguyen@breakoutroom.org
    Signature Algorithm: sha1WithRSAEncryption
         52:37:72:e8:71:4d:dd:58:c5:7f:0d:b8:05:1e:f5:56:99:45:
         c6:54:96:f0:6a:0e:8e:ee:40:b7:7d:62:1d:03:b5:68:7b:a8:
         36:de:e1:34:9e:55:52:af:83:1b:27:f1:b1:0b:15:7c:bb:37:
         51:70:28:c0:64:2f:32:4e:64:f3:73:e8:0f:a0:ea:59:2c:b9:
         31:a2:9d:61:9b:42:8c:90:d3:ba:e9:d9:93:5f:de:a6:e9:47:
         81:10:88:46:4d:91:c4:17:53:c9:38:a7:b6:c4:e4:a1:99:9b:
         90:33:3e:91:42:18:f5:25:1a:3b:71:ca:76:b7:55:4f:c3:fa:
         a8:c6:a9:53:49:15:98:eb:37:99:e4:f5:0f:b6:3b:72:41:5a:
         7c:9a:07:97:9a:ec:3d:5e:9b:f4:ce:87:b4:3c:31:a7:06:6a:
         be:52:d6:bb:d0:18:af:e8:f9:21:ec:bd:f8:51:17:bf:10:ab:
         d5:ec:8d:6c:05:25:0f:f1:77:56:ea:15:65:2a:92:62:8f:0e:
         0f:68:5c:98:27:f3:41:6a:41:96:6b:c5:40:22:3a:c3:f1:26:
         cc:19:61:67:94:b4:2e:00:f3:27:34:1b:be:ce:56:83:0d:6a:
         f0:7e:b2:b9:7e:94:1f:12:ad:0f:7e:f7:ea:d7:e8:47:5f:3d:
         2a:79:7f:81
-----BEGIN CERTIFICATE-----
MIIEITCCAwmgAwIBAgIBATANBgkqhkiG9w0BAQUFADCBmzETMBEGCgmSJomT8ixk
ARkWA29yZzEcMBoGCgmSJomT8ixkARkWDGJyZWFrb3V0cm9vbTEcMBoGA1UECgwT
QnJlYWtvdXQgUm9vbSAyIEluYzEjMCEGA1UECwwaQnJlYWtvdXQgUm9vbSAyIFNp
Z25pbmcgQ0ExIzAhBgNVBAMMGkJyZWFrb3V0IFJvb20gMiBTaWduaW5nIENBMB4X
DTIyMDUwNTEwMDcxMFoXDTI0MDUwNDEwMDcxMFowaDETMBEGCgmSJomT8ixkARkW
A29yZzEcMBoGCgmSJomT8ixkARkWDGJyZWFrb3V0cm9vbTEcMBoGA1UECgwTQnJl
YWtvdXQgUm9vbSAyIEluYzEVMBMGA1UEAwwMTmd1eWVuIER1b25nMIIBIjANBgkq
hkiG9w0BAQEFAAOCAQ8AMIIBCgKCAQEAyFFw2ljOaOFZW+SErwapjPcsxQ2vP5hQ
I1k4atxZKBMjnmEOTN09Xa9qn8SZUemvbF/kuSfVUd4ZmCgeJroWQArSgE8idJ6o
VjtFilLRVYoUQq1ikPL5MwiKagMQPOAvZB0mce5aqRK6IKtEWVod4lU2p93E6VWt
B2x6DHGO8+I5W6KlYJgUGfJAS8DoGM7nv1KlARZO4U+kVXrbW0REOW1O3SyAt/Ep
0qoGlW72k5zahvWfP21G9BL+U028B6n6UY3Nam+g0Ai7/eUGPpG+jfs7PabUcUVD
UgfgKCqhgxECSFJKsOXHrMgH3Q+u5MnuBM+kLRvEoP4KaWVOcmVMXwIDAQABo4Gh
MIGeMA4GA1UdDwEB/wQEAwIFoDAJBgNVHRMEAjAAMB0GA1UdJQQWMBQGCCsGAQUF
BwMEBggrBgEFBQcDAjAdBgNVHQ4EFgQUoDw4sBj7ed/VVqSZzkDsMTSSYL4wHwYD
VR0jBBgwFoAUlFP0eEVw0pKBHZctM2Jlg8I0Y0gwIgYDVR0RBBswGYEXbmd1eWVu
QGJyZWFrb3V0cm9vbS5vcmcwDQYJKoZIhvcNAQEFBQADggEBAFI3cuhxTd1YxX8N
uAUe9VaZRcZUlvBqDo7uQLd9Yh0DtWh7qDbe4TSeVVKvgxsn8bELFXy7N1FwKMBk
LzJOZPNz6A+g6lksuTGinWGbQoyQ07rp2ZNf3qbpR4EQiEZNkcQXU8k4p7bE5KGZ
m5AzPpFCGPUlGjtxyna3VU/D+qjGqVNJFZjrN5nk9Q+2O3JBWnyaB5ea7D1em/TO
h7Q8MacGar5S1rvQGK/o+SHsvfhRF78Qq9XsjWwFJQ/xd1bqFWUqkmKPDg9oXJgn
80FqQZZrxUAiOsPxJswZYWeUtC4A8yc0G77OVoMNavB+srl+lB8SrQ9+9+rX6Edf
PSp5f4E=
-----END CERTIFICATE-----
