Certificate:
    Data:
        Version: 3 (0x2)
        Serial Number: 2 (0x2)
        Signature Algorithm: sha1WithRSAEncryption
        Issuer: DC=org, DC=breakoutroom, O=Breakout Room 2 Inc, OU=Breakout Room 2 Root CA, CN=Breakout Room 2 Root CA
        Validity
            Not Before: May  5 10:05:33 2022 GMT
            Not After : May  4 10:05:33 2032 GMT
        Subject: DC=org, DC=breakoutroom, O=Breakout Room 2 Inc, OU=Breakout Room 2 Signing CA, CN=Breakout Room 2 Signing CA
        Subject Public Key Info:
            Public Key Algorithm: rsaEncryption
                RSA Public-Key: (2048 bit)
                Modulus:
                    00:d8:d3:3b:d3:50:5b:b2:ff:f1:76:1b:7d:9e:d0:
                    63:72:55:2b:70:50:fb:cd:e9:bb:ad:da:44:fc:41:
                    32:17:3f:95:64:cf:ee:96:de:60:a0:8a:9a:ef:55:
                    b6:6d:6e:1c:29:0b:be:cb:61:0c:47:30:d2:78:02:
                    2b:87:ef:6a:1e:dc:8c:43:ad:dd:1a:c3:47:ce:98:
                    39:ea:47:f5:6c:74:41:97:9a:e7:1d:09:ca:84:23:
                    b0:9c:e9:5e:64:4d:3e:85:6a:e8:b7:ba:b0:9d:62:
                    f8:58:31:18:8b:a6:12:2c:8f:48:e4:96:58:47:8a:
                    5a:b9:a9:26:8a:86:2c:94:79:18:b1:86:ed:cd:0c:
                    d1:47:6b:b8:8a:3f:27:62:f0:e5:f4:81:a6:67:81:
                    00:db:9c:7f:4e:10:4b:46:7f:bc:28:0e:c1:85:cc:
                    f7:f8:fc:75:44:96:fb:8f:79:5d:82:24:af:88:f8:
                    1f:55:d0:17:0d:bb:c5:a2:bf:b1:47:f1:62:13:41:
                    44:18:eb:a3:f5:d8:cb:c5:ce:5d:c0:a7:58:36:f8:
                    f8:c2:df:81:9d:3b:c4:ae:c4:fe:88:01:26:6a:9e:
                    92:c5:d8:a1:8c:f4:c9:90:1f:53:4a:13:cd:a9:0d:
                    87:5e:4c:52:90:f3:75:69:b9:a8:0c:16:14:5f:6a:
                    3b:53
                Exponent: 65537 (0x10001)
        X509v3 extensions:
            X509v3 Key Usage: critical
                Certificate Sign, CRL Sign
            X509v3 Basic Constraints: critical
                CA:TRUE, pathlen:0
            X509v3 Subject Key Identifier: 
                94:53:F4:78:45:70:D2:92:81:1D:97:2D:33:62:65:83:C2:34:63:48
            X509v3 Authority Key Identifier: 
                keyid:C7:0C:C4:02:2A:D4:28:60:30:16:0A:21:05:D9:08:57:E4:29:86:F2

    Signature Algorithm: sha1WithRSAEncryption
         8d:ee:f1:18:6c:4a:c4:56:9d:b1:ba:73:b9:f7:bf:55:c1:d2:
         db:90:57:38:58:0b:58:61:49:27:6b:49:07:44:ce:aa:02:ac:
         de:ac:d2:39:41:77:90:46:0e:48:fd:66:29:59:99:19:1e:01:
         6f:f6:02:b0:06:e8:21:09:7f:5c:12:5c:df:c3:81:94:7a:f8:
         73:70:9d:cf:25:d3:28:9a:c3:f0:68:51:51:48:ca:11:07:d0:
         3d:d1:4a:b1:2d:f0:1c:d2:0e:0d:96:7e:ff:35:16:34:60:5d:
         98:8a:0f:2c:83:c5:90:d2:8d:a6:b7:67:5e:52:7d:92:1f:46:
         19:2f:04:7b:cc:f9:73:53:46:24:ef:53:9e:28:44:fe:80:38:
         cf:57:c9:40:2f:88:da:63:8e:52:f7:f3:c0:7a:66:bf:3b:11:
         8a:11:11:4b:89:47:90:5a:06:36:75:d4:36:8d:fa:67:72:b9:
         ff:13:c5:7d:8f:71:cc:37:66:ec:5f:a9:03:02:b3:0f:3c:a7:
         54:1a:0c:08:a3:54:b3:7e:95:87:70:3c:98:11:d5:3d:5b:37:
         f6:78:0f:63:b8:c5:cb:91:27:b8:79:25:02:03:ff:a4:00:f2:
         47:ef:da:7f:f7:aa:5c:ad:b8:a2:6a:76:10:30:f4:eb:9c:b8:
         4b:37:1f:7f
-----BEGIN CERTIFICATE-----
MIIEEzCCAvugAwIBAgIBAjANBgkqhkiG9w0BAQUFADCBlTETMBEGCgmSJomT8ixk
ARkWA29yZzEcMBoGCgmSJomT8ixkARkWDGJyZWFrb3V0cm9vbTEcMBoGA1UECgwT
QnJlYWtvdXQgUm9vbSAyIEluYzEgMB4GA1UECwwXQnJlYWtvdXQgUm9vbSAyIFJv
b3QgQ0ExIDAeBgNVBAMMF0JyZWFrb3V0IFJvb20gMiBSb290IENBMB4XDTIyMDUw
NTEwMDUzM1oXDTMyMDUwNDEwMDUzM1owgZsxEzARBgoJkiaJk/IsZAEZFgNvcmcx
HDAaBgoJkiaJk/IsZAEZFgxicmVha291dHJvb20xHDAaBgNVBAoME0JyZWFrb3V0
IFJvb20gMiBJbmMxIzAhBgNVBAsMGkJyZWFrb3V0IFJvb20gMiBTaWduaW5nIENB
MSMwIQYDVQQDDBpCcmVha291dCBSb29tIDIgU2lnbmluZyBDQTCCASIwDQYJKoZI
hvcNAQEBBQADggEPADCCAQoCggEBANjTO9NQW7L/8XYbfZ7QY3JVK3BQ+83pu63a
RPxBMhc/lWTP7pbeYKCKmu9Vtm1uHCkLvsthDEcw0ngCK4fvah7cjEOt3RrDR86Y
OepH9Wx0QZea5x0JyoQjsJzpXmRNPoVq6Le6sJ1i+FgxGIumEiyPSOSWWEeKWrmp
JoqGLJR5GLGG7c0M0UdruIo/J2Lw5fSBpmeBANucf04QS0Z/vCgOwYXM9/j8dUSW
+495XYIkr4j4H1XQFw27xaK/sUfxYhNBRBjro/XYy8XOXcCnWDb4+MLfgZ07xK7E
/ogBJmqeksXYoYz0yZAfU0oTzakNh15MUpDzdWm5qAwWFF9qO1MCAwEAAaNmMGQw
DgYDVR0PAQH/BAQDAgEGMBIGA1UdEwEB/wQIMAYBAf8CAQAwHQYDVR0OBBYEFJRT
9HhFcNKSgR2XLTNiZYPCNGNIMB8GA1UdIwQYMBaAFMcMxAIq1ChgMBYKIQXZCFfk
KYbyMA0GCSqGSIb3DQEBBQUAA4IBAQCN7vEYbErEVp2xunO5979VwdLbkFc4WAtY
YUkna0kHRM6qAqzerNI5QXeQRg5I/WYpWZkZHgFv9gKwBughCX9cElzfw4GUevhz
cJ3PJdMomsPwaFFRSMoRB9A90UqxLfAc0g4Nln7/NRY0YF2Yig8sg8WQ0o2mt2de
Un2SH0YZLwR7zPlzU0Yk71OeKET+gDjPV8lAL4jaY45S9/PAema/OxGKERFLiUeQ
WgY2ddQ2jfpncrn/E8V9j3HMN2bsX6kDArMPPKdUGgwIo1SzfpWHcDyYEdU9Wzf2
eA9juMXLkSe4eSUCA/+kAPJH79p/96pcrbiianYQMPTrnLhLNx9/
-----END CERTIFICATE-----
