Certificate:
    Data:
        Version: 3 (0x2)
        Serial Number: 2 (0x2)
        Signature Algorithm: sha1WithRSAEncryption
        Issuer: DC=org, DC=breakoutroom, O=Breakout Room 2 Inc, OU=Breakout Room 2 Root CA, CN=Breakout Room 2 Root CA
        Validity
            Not Before: May  5 10:05:33 2022 GMT
            Not After : May  4 10:05:33 2032 GMT
        Subject: DC=org, DC=breakoutroom, O=Breakout Room 2 Inc, OU=Breakout Room 2 Signing CA, CN=Breakout Room 2 Signing CA
        Subject Public Key Info:
            Public Key Algorithm: rsaEncryption
                RSA Public-Key: (2048 bit)
                Modulus:
                    00:d8:d3:3b:d3:50:5b:b2:ff:f1:76:1b:7d:9e:d0:
                    63:72:55:2b:70:50:fb:cd:e9:bb:ad:da:44:fc:41:
                    32:17:3f:95:64:cf:ee:96:de:60:a0:8a:9a:ef:55:
                    b6:6d:6e:1c:29:0b:be:cb:61:0c:47:30:d2:78:02:
                    2b:87:ef:6a:1e:dc:8c:43:ad:dd:1a:c3:47:ce:98:
                    39:ea:47:f5:6c:74:41:97:9a:e7:1d:09:ca:84:23:
                    b0:9c:e9:5e:64:4d:3e:85:6a:e8:b7:ba:b0:9d:62:
                    f8:58:31:18:8b:a6:12:2c:8f:48:e4:96:58:47:8a:
                    5a:b9:a9:26:8a:86:2c:94:79:18:b1:86:ed:cd:0c:
                    d1:47:6b:b8:8a:3f:27:62:f0:e5:f4:81:a6:67:81:
                    00:db:9c:7f:4e:10:4b:46:7f:bc:28:0e:c1:85:cc:
                    f7:f8:fc:75:44:96:fb:8f:79:5d:82:24:af:88:f8:
                    1f:55:d0:17:0d:bb:c5:a2:bf:b1:47:f1:62:13:41:
                    44:18:eb:a3:f5:d8:cb:c5:ce:5d:c0:a7:58:36:f8:
                    f8:c2:df:81:9d:3b:c4:ae:c4:fe:88:01:26:6a:9e:
                    92:c5:d8:a1:8c:f4:c9:90:1f:53:4a:13:cd:a9:0d:
                    87:5e:4c:52:90:f3:75:69:b9:a8:0c:16:14:5f:6a:
                    3b:53
                Exponent: 65537 (0x10001)
        X509v3 extensions:
            X509v3 Key Usage: critical
                Certificate Sign, CRL Sign
            X509v3 Basic Constraints: critical
                CA:TRUE, pathlen:0
            X509v3 Subject Key Identifier: 
                94:53:F4:78:45:70:D2:92:81:1D:97:2D:33:62:65:83:C2:34:63:48
            X509v3 Authority Key Identifier: 
                keyid:C7:0C:C4:02:2A:D4:28:60:30:16:0A:21:05:D9:08:57:E4:29:86:F2

    Signature Algorithm: sha1WithRSAEncryption
         8d:ee:f1:18:6c:4a:c4:56:9d:b1:ba:73:b9:f7:bf:55:c1:d2:
         db:90:57:38:58:0b:58:61:49:27:6b:49:07:44:ce:aa:02:ac:
         de:ac:d2:39:41:77:90:46:0e:48:fd:66:29:59:99:19:1e:01:
         6f:f6:02:b0:06:e8:21:09:7f:5c:12:5c:df:c3:81:94:7a:f8:
         73:70:9d:cf:25:d3:28:9a:c3:f0:68:51:51:48:ca:11:07:d0:
         3d:d1:4a:b1:2d:f0:1c:d2:0e:0d:96:7e:ff:35:16:34:60:5d:
         98:8a:0f:2c:83:c5:90:d2:8d:a6:b7:67:5e:52:7d:92:1f:46:
         19:2f:04:7b:cc:f9:73:53:46:24:ef:53:9e:28:44:fe:80:38:
         cf:57:c9:40:2f:88:da:63:8e:52:f7:f3:c0:7a:66:bf:3b:11:
         8a:11:11:4b:89:47:90:5a:06:36:75:d4:36:8d:fa:67:72:b9:
         ff:13:c5:7d:8f:71:cc:37:66:ec:5f:a9:03:02:b3:0f:3c:a7:
         54:1a:0c:08:a3:54:b3:7e:95:87:70:3c:98:11:d5:3d:5b:37:
         f6:78:0f:63:b8:c5:cb:91:27:b8:79:25:02:03:ff:a4:00:f2:
         47:ef:da:7f:f7:aa:5c:ad:b8:a2:6a:76:10:30:f4:eb:9c:b8:
         4b:37:1f:7f
-----BEGIN CERTIFICATE-----
MIIEEzCCAvugAwIBAgIBAjANBgkqhkiG9w0BAQUFADCBlTETMBEGCgmSJomT8ixk
ARkWA29yZzEcMBoGCgmSJomT8ixkARkWDGJyZWFrb3V0cm9vbTEcMBoGA1UECgwT
QnJlYWtvdXQgUm9vbSAyIEluYzEgMB4GA1UECwwXQnJlYWtvdXQgUm9vbSAyIFJv
b3QgQ0ExIDAeBgNVBAMMF0JyZWFrb3V0IFJvb20gMiBSb290IENBMB4XDTIyMDUw
NTEwMDUzM1oXDTMyMDUwNDEwMDUzM1owgZsxEzARBgoJkiaJk/IsZAEZFgNvcmcx
HDAaBgoJkiaJk/IsZAEZFgxicmVha291dHJvb20xHDAaBgNVBAoME0JyZWFrb3V0
IFJvb20gMiBJbmMxIzAhBgNVBAsMGkJyZWFrb3V0IFJvb20gMiBTaWduaW5nIENB
MSMwIQYDVQQDDBpCcmVha291dCBSb29tIDIgU2lnbmluZyBDQTCCASIwDQYJKoZI
hvcNAQEBBQADggEPADCCAQoCggEBANjTO9NQW7L/8XYbfZ7QY3JVK3BQ+83pu63a
RPxBMhc/lWTP7pbeYKCKmu9Vtm1uHCkLvsthDEcw0ngCK4fvah7cjEOt3RrDR86Y
OepH9Wx0QZea5x0JyoQjsJzpXmRNPoVq6Le6sJ1i+FgxGIumEiyPSOSWWEeKWrmp
JoqGLJR5GLGG7c0M0UdruIo/J2Lw5fSBpmeBANucf04QS0Z/vCgOwYXM9/j8dUSW
+495XYIkr4j4H1XQFw27xaK/sUfxYhNBRBjro/XYy8XOXcCnWDb4+MLfgZ07xK7E
/ogBJmqeksXYoYz0yZAfU0oTzakNh15MUpDzdWm5qAwWFF9qO1MCAwEAAaNmMGQw
DgYDVR0PAQH/BAQDAgEGMBIGA1UdEwEB/wQIMAYBAf8CAQAwHQYDVR0OBBYEFJRT
9HhFcNKSgR2XLTNiZYPCNGNIMB8GA1UdIwQYMBaAFMcMxAIq1ChgMBYKIQXZCFfk
KYbyMA0GCSqGSIb3DQEBBQUAA4IBAQCN7vEYbErEVp2xunO5979VwdLbkFc4WAtY
YUkna0kHRM6qAqzerNI5QXeQRg5I/WYpWZkZHgFv9gKwBughCX9cElzfw4GUevhz
cJ3PJdMomsPwaFFRSMoRB9A90UqxLfAc0g4Nln7/NRY0YF2Yig8sg8WQ0o2mt2de
Un2SH0YZLwR7zPlzU0Yk71OeKET+gDjPV8lAL4jaY45S9/PAema/OxGKERFLiUeQ
WgY2ddQ2jfpncrn/E8V9j3HMN2bsX6kDArMPPKdUGgwIo1SzfpWHcDyYEdU9Wzf2
eA9juMXLkSe4eSUCA/+kAPJH79p/96pcrbiianYQMPTrnLhLNx9/
-----END CERTIFICATE-----
Certificate:
    Data:
        Version: 3 (0x2)
        Serial Number: 1 (0x1)
        Signature Algorithm: sha1WithRSAEncryption
        Issuer: DC=org, DC=breakoutroom, O=Breakout Room 2 Inc, OU=Breakout Room 2 Root CA, CN=Breakout Room 2 Root CA
        Validity
            Not Before: May  5 10:04:55 2022 GMT
            Not After : May  4 10:04:55 2032 GMT
        Subject: DC=org, DC=breakoutroom, O=Breakout Room 2 Inc, OU=Breakout Room 2 Root CA, CN=Breakout Room 2 Root CA
        Subject Public Key Info:
            Public Key Algorithm: rsaEncryption
                RSA Public-Key: (2048 bit)
                Modulus:
                    00:c3:09:de:52:14:b0:7a:f3:0e:cd:9b:85:67:fc:
                    ad:2c:69:60:98:ae:cb:d4:ab:5a:cf:6b:10:3b:07:
                    28:94:96:88:31:81:c1:0b:4b:0d:89:37:b4:a4:df:
                    e1:38:22:27:2f:a1:3c:c8:e6:38:a1:50:83:6c:95:
                    1d:51:2e:15:07:01:1b:56:f1:39:14:f8:61:10:15:
                    08:06:fd:6f:7d:15:3f:e7:85:75:65:83:2a:2d:b3:
                    ec:fc:ce:5d:fb:12:fe:b3:3c:85:96:f2:24:6a:cf:
                    ba:df:d7:9b:7c:c9:88:96:ee:23:fb:35:9c:f0:e5:
                    73:9e:e7:aa:60:c5:94:80:18:59:99:4f:51:99:cd:
                    d1:de:db:dc:74:0e:a5:61:48:fd:40:e1:71:28:54:
                    81:07:77:d9:f4:b9:90:0f:9b:c1:9b:67:77:bf:df:
                    e1:b9:77:e7:21:f5:36:3d:34:65:eb:e3:41:3c:2a:
                    cc:21:e1:b7:8b:79:10:b2:36:1d:88:1e:5b:d8:d6:
                    3a:c0:0c:04:4f:b4:9c:74:a5:f3:5e:f7:62:e0:1a:
                    d9:6c:f0:dd:dc:d7:be:a3:1e:10:c0:cb:57:85:3c:
                    9d:f4:08:c5:3e:45:7e:73:f9:43:8a:63:4c:42:1b:
                    3e:e0:06:60:dd:ce:ef:eb:a1:70:55:d2:d4:76:84:
                    58:13
                Exponent: 65537 (0x10001)
        X509v3 extensions:
            X509v3 Key Usage: critical
                Certificate Sign, CRL Sign
            X509v3 Basic Constraints: critical
                CA:TRUE
            X509v3 Subject Key Identifier: 
                C7:0C:C4:02:2A:D4:28:60:30:16:0A:21:05:D9:08:57:E4:29:86:F2
            X509v3 Authority Key Identifier: 
                keyid:C7:0C:C4:02:2A:D4:28:60:30:16:0A:21:05:D9:08:57:E4:29:86:F2

    Signature Algorithm: sha1WithRSAEncryption
         7c:f7:35:a5:53:2b:56:2d:06:22:39:d7:ea:b2:d0:ff:10:d6:
         49:25:9d:18:6d:d8:53:66:d0:29:03:9f:93:6f:e8:3e:c0:33:
         30:68:28:32:67:07:1d:65:ee:93:74:1b:45:70:6b:d8:54:75:
         a0:97:d5:1f:fd:f1:c8:c3:5d:67:01:45:bf:b4:9e:bb:da:76:
         c6:af:9d:80:85:17:d9:bd:4b:63:d6:0b:0e:45:f4:d9:98:0c:
         df:53:97:6e:97:1e:f4:a4:6a:bf:01:55:39:09:bd:6a:69:71:
         60:5d:f2:c1:e1:43:45:fa:46:3d:23:89:2b:88:6e:50:a8:1b:
         b4:a2:91:81:18:c3:c0:0b:13:10:90:5f:af:a4:b5:09:83:80:
         fa:72:ba:1e:a4:d0:7a:44:de:e3:f9:32:cf:ae:b4:73:bb:17:
         10:52:4d:c9:53:e4:43:ab:34:27:36:24:36:b2:8d:e2:5b:59:
         04:ed:c1:09:00:5b:33:7c:cc:24:72:84:8a:4e:50:9f:77:b8:
         a9:7b:58:ea:f6:65:32:d7:76:a6:c1:74:46:2a:f3:76:59:9c:
         18:bd:b4:6d:57:20:68:69:86:58:6a:24:e5:9f:9c:d2:4c:3e:
         0c:6a:48:f6:2e:7a:3f:c9:79:a9:64:5a:58:de:d2:94:31:67:
         b9:73:a4:7b
-----BEGIN CERTIFICATE-----
MIIECjCCAvKgAwIBAgIBATANBgkqhkiG9w0BAQUFADCBlTETMBEGCgmSJomT8ixk
ARkWA29yZzEcMBoGCgmSJomT8ixkARkWDGJyZWFrb3V0cm9vbTEcMBoGA1UECgwT
QnJlYWtvdXQgUm9vbSAyIEluYzEgMB4GA1UECwwXQnJlYWtvdXQgUm9vbSAyIFJv
b3QgQ0ExIDAeBgNVBAMMF0JyZWFrb3V0IFJvb20gMiBSb290IENBMB4XDTIyMDUw
NTEwMDQ1NVoXDTMyMDUwNDEwMDQ1NVowgZUxEzARBgoJkiaJk/IsZAEZFgNvcmcx
HDAaBgoJkiaJk/IsZAEZFgxicmVha291dHJvb20xHDAaBgNVBAoME0JyZWFrb3V0
IFJvb20gMiBJbmMxIDAeBgNVBAsMF0JyZWFrb3V0IFJvb20gMiBSb290IENBMSAw
HgYDVQQDDBdCcmVha291dCBSb29tIDIgUm9vdCBDQTCCASIwDQYJKoZIhvcNAQEB
BQADggEPADCCAQoCggEBAMMJ3lIUsHrzDs2bhWf8rSxpYJiuy9SrWs9rEDsHKJSW
iDGBwQtLDYk3tKTf4TgiJy+hPMjmOKFQg2yVHVEuFQcBG1bxORT4YRAVCAb9b30V
P+eFdWWDKi2z7PzOXfsS/rM8hZbyJGrPut/Xm3zJiJbuI/s1nPDlc57nqmDFlIAY
WZlPUZnN0d7b3HQOpWFI/UDhcShUgQd32fS5kA+bwZtnd7/f4bl35yH1Nj00Zevj
QTwqzCHht4t5ELI2HYgeW9jWOsAMBE+0nHSl8173YuAa2Wzw3dzXvqMeEMDLV4U8
nfQIxT5FfnP5Q4pjTEIbPuAGYN3O7+uhcFXS1HaEWBMCAwEAAaNjMGEwDgYDVR0P
AQH/BAQDAgEGMA8GA1UdEwEB/wQFMAMBAf8wHQYDVR0OBBYEFMcMxAIq1ChgMBYK
IQXZCFfkKYbyMB8GA1UdIwQYMBaAFMcMxAIq1ChgMBYKIQXZCFfkKYbyMA0GCSqG
SIb3DQEBBQUAA4IBAQB89zWlUytWLQYiOdfqstD/ENZJJZ0YbdhTZtApA5+Tb+g+
wDMwaCgyZwcdZe6TdBtFcGvYVHWgl9Uf/fHIw11nAUW/tJ672nbGr52AhRfZvUtj
1gsORfTZmAzfU5dulx70pGq/AVU5Cb1qaXFgXfLB4UNF+kY9I4kriG5QqBu0opGB
GMPACxMQkF+vpLUJg4D6croepNB6RN7j+TLPrrRzuxcQUk3JU+RDqzQnNiQ2so3i
W1kE7cEJAFszfMwkcoSKTlCfd7ipe1jq9mUy13amwXRGKvN2WZwYvbRtVyBoaYZY
aiTln5zSTD4Makj2Lno/yXmpZFpY3tKUMWe5c6R7
-----END CERTIFICATE-----
